(dp1
S'output'
p2
S"<type 'exceptions.ValueError'> invalid literal for long() with base 10: 'hschaefe@ucsc.edu'"
p3
sS'layer'
p4
S'/home/sushi319_gmail_com/183/web2py/applications/hw2/controllers/default.py'
p5
sS'code'
p6
S'<code object <module> at 0x7fc4f1e84330, file "/home/sushi319_gmail_com/183/web2py/applications/hw2/controllers/default.py", line 12>'
p7
sS'snapshot'
p8
(dp9
sS'traceback'
p10
S'Traceback (most recent call last):\n  File "/home/sushi319_gmail_com/183/web2py/gluon/restricted.py", line 219, in restricted\n    exec(ccode, environment)\n  File "/home/sushi319_gmail_com/183/web2py/applications/hw2/controllers/default.py", line 126, in <module>\n  File "/home/sushi319_gmail_com/183/web2py/gluon/globals.py", line 421, in <lambda>\n    self._caller = lambda f: f()\n  File "/home/sushi319_gmail_com/183/web2py/applications/hw2/controllers/default.py", line 60, in list\n    return dict(grid=SQLFORM.grid(db.r_products, links=links))\n  File "/home/sushi319_gmail_com/183/web2py/gluon/sqlhtml.py", line 3040, in grid\n    toadd.append(TD(link[\'body\'](row)))\n  File "/home/sushi319_gmail_com/183/web2py/applications/hw2/controllers/default.py", line 22, in star\n    if db(myquery).select() is None:\n  File "/home/sushi319_gmail_com/183/web2py/gluon/packages/dal/pydal/objects.py", line 2395, in select\n    return adapter.select(self.query, fields, attributes)\n  File "/home/sushi319_gmail_com/183/web2py/gluon/packages/dal/pydal/adapters/sqlite.py", line 82, in select\n    return super(SQLite, self).select(query, fields, attributes)\n  File "/home/sushi319_gmail_com/183/web2py/gluon/packages/dal/pydal/adapters/base.py", line 758, in select\n    colnames, sql = self._select_wcols(query, fields, **attributes)\n  File "/home/sushi319_gmail_com/183/web2py/gluon/packages/dal/pydal/adapters/base.py", line 673, in _select_wcols\n    query = self.expand(query, query_env=query_env)\n  File "/home/sushi319_gmail_com/183/web2py/gluon/packages/dal/pydal/adapters/base.py", line 435, in _expand\n    rv = op(first, second, **optional_args)\n  File "/home/sushi319_gmail_com/183/web2py/gluon/packages/dal/pydal/dialects/base.py", line 228, in _and\n    self.expand(second, query_env=query_env))\n  File "/home/sushi319_gmail_com/183/web2py/gluon/packages/dal/pydal/dialects/__init__.py", line 96, in expand\n    return self.adapter.expand(*args, **kwargs)\n  File "/home/sushi319_gmail_com/183/web2py/gluon/packages/dal/pydal/adapters/base.py", line 435, in _expand\n    rv = op(first, second, **optional_args)\n  File "/home/sushi319_gmail_com/183/web2py/gluon/packages/dal/pydal/dialects/base.py", line 344, in eq\n    self.expand(second, first.type, query_env=query_env))\n  File "/home/sushi319_gmail_com/183/web2py/gluon/packages/dal/pydal/dialects/__init__.py", line 96, in expand\n    return self.adapter.expand(*args, **kwargs)\n  File "/home/sushi319_gmail_com/183/web2py/gluon/packages/dal/pydal/adapters/base.py", line 445, in _expand\n    rv = self.represent(expression, field_type)\n  File "/home/sushi319_gmail_com/183/web2py/gluon/packages/dal/pydal/adapters/base.py", line 382, in represent\n    return super(SQLAdapter, self).represent(obj, field_type)\n  File "/home/sushi319_gmail_com/183/web2py/gluon/packages/dal/pydal/adapters/base.py", line 336, in represent\n    return self.representer.represent(obj, field_type)\n  File "/home/sushi319_gmail_com/183/web2py/gluon/packages/dal/pydal/representers/__init__.py", line 251, in represent\n    rv = self.get_representer_for_type(field_type)(rv, field_type)\n  File "/home/sushi319_gmail_com/183/web2py/gluon/packages/dal/pydal/representers/__init__.py", line 139, in __call__\n    return self.adapt(self.call(value, field_type))\n  File "/home/sushi319_gmail_com/183/web2py/gluon/packages/dal/pydal/representers/__init__.py", line 136, in _call\n    return self.inner_call(value)\n  File "/home/sushi319_gmail_com/183/web2py/gluon/packages/dal/pydal/representers/__init__.py", line 124, in _inner_call\n    return self.obj.f(self.representer, value, **kwargs)\n  File "/home/sushi319_gmail_com/183/web2py/gluon/packages/dal/pydal/representers/base.py", line 30, in _integer\n    return str(long(value))\nValueError: invalid literal for long() with base 10: \'hschaefe@ucsc.edu\'\n'
p11
s.